Certificate:
    Data:
        Version: 3 (0x2)
        Serial Number: 29 (0x1d)
    Signature Algorithm: dsaWithSHA1
        Issuer: C=CH, ST=Zurich, L=Zurich, O=ETH, OU=AppliedSecLab, CN=Core CA/emailAddress=core_ca_admin@hotmail.com
        Validity
            Not Before: Nov 18 12:50:13 2017 GMT
            Not After : Nov 18 12:50:13 2018 GMT
        Subject: C=CH, ST=Zurich, O=ETH, OU=AppliedSecLab, CN=Ard1 Kastrati/emailAddress=ard1_kitara@hotmail.com
        Subject Public Key Info:
            Public Key Algorithm: rsaEncryption
                Public-Key: (1024 bit)
                Modulus:
                    00:bf:f5:49:44:37:fe:19:08:7f:d3:bd:26:2b:91:
                    4d:ac:d2:08:a9:c2:61:6f:c4:51:ae:97:40:7d:e2:
                    cd:fe:ac:2b:07:ac:b6:d1:7e:3d:a9:8d:32:d5:d8:
                    8c:ba:92:b7:b4:5a:65:f0:34:5d:aa:d9:f2:73:8c:
                    2c:35:64:ce:cb:37:c0:bd:cc:b7:a8:c8:0c:9b:00:
                    99:68:12:d5:4a:49:71:5b:90:6e:c3:a4:4f:a2:14:
                    99:21:15:49:55:2f:b5:c3:21:9b:ad:7b:73:02:06:
                    9e:fe:5a:97:0a:6d:72:9d:5e:06:41:b5:3e:af:09:
                    e0:a3:6e:d8:c6:38:1e:f1:7d
                Exponent: 65537 (0x10001)
        X509v3 extensions:
            X509v3 Basic Constraints: 
                CA:FALSE
            Netscape Cert Type: 
                SSL Client, S/MIME
            X509v3 Extended Key Usage: 
                E-mail Protection
            X509v3 Subject Key Identifier: 
                79:F6:47:10:92:AD:1D:7C:96:A7:5C:E6:1A:6E:2E:7C:1B:C3:4C:B5
            X509v3 Authority Key Identifier: 
                DirName:/C=CH/ST=Zurich/L=Zurich/O=ETH/OU=AppliedSecLab/CN=Core CA/emailAddress=core_ca_admin@hotmail.com
                serial:D5:F6:22:72:36:5B:7C:08

            X509v3 Subject Alternative Name: critical
                email:ard1_kitara@hotmail.com
    Signature Algorithm: dsaWithSHA1
         r:   
             00:83:dc:87:56:14:89:a0:c3:4c:9c:14:be:08:7f:
             29:1f:87:17:7d:9a:89:21:51:40:46:c7:70:be:d9:
             e4:08:4b
         s:   
             65:d4:49:b7:67:fb:0f:ec:e7:a3:4c:7a:f8:b6:92:
             cf:56:78:c3:9b:0e:27:d5:38:fe:42:ed:d2:6f:cb:
             f3:e4
-----BEGIN CERTIFICATE-----
MIIDfTCCAySgAwIBAgIBHTAJBgcqhkjOOAQDMIGRMQswCQYDVQQGEwJDSDEPMA0G
A1UECAwGWnVyaWNoMQ8wDQYDVQQHDAZadXJpY2gxDDAKBgNVBAoMA0VUSDEWMBQG
A1UECwwNQXBwbGllZFNlY0xhYjEQMA4GA1UEAwwHQ29yZSBDQTEoMCYGCSqGSIb3
DQEJARYZY29yZV9jYV9hZG1pbkBob3RtYWlsLmNvbTAeFw0xNzExMTgxMjUwMTNa
Fw0xODExMTgxMjUwMTNaMIGEMQswCQYDVQQGEwJDSDEPMA0GA1UECAwGWnVyaWNo
MQwwCgYDVQQKDANFVEgxFjAUBgNVBAsMDUFwcGxpZWRTZWNMYWIxFjAUBgNVBAMM
DUFyZDEgS2FzdHJhdGkxJjAkBgkqhkiG9w0BCQEWF2FyZDFfa2l0YXJhQGhvdG1h
aWwuY29tMIGfMA0GCSqGSIb3DQEBAQUAA4GNADCBiQKBgQC/9UlEN/4ZCH/TvSYr
kU2s0gipwmFvxFGul0B94s3+rCsHrLbRfj2pjTLV2Iy6kre0WmXwNF2q2fJzjCw1
ZM7LN8C9zLeoyAybAJloEtVKSXFbkG7DpE+iFJkhFUlVL7XDIZute3MCBp7+WpcK
bXKdXgZBtT6vCeCjbtjGOB7xfQIDAQABo4IBMDCCASwwCQYDVR0TBAIwADARBglg
hkgBhvhCAQEEBAMCBaAwEwYDVR0lBAwwCgYIKwYBBQUHAwQwHQYDVR0OBBYEFHn2
RxCSrR18lqdc5hpuLnwbw0y1MIGwBgNVHSMEgagwgaWhgZekgZQwgZExCzAJBgNV
BAYTAkNIMQ8wDQYDVQQIDAZadXJpY2gxDzANBgNVBAcMBlp1cmljaDEMMAoGA1UE
CgwDRVRIMRYwFAYDVQQLDA1BcHBsaWVkU2VjTGFiMRAwDgYDVQQDDAdDb3JlIENB
MSgwJgYJKoZIhvcNAQkBFhljb3JlX2NhX2FkbWluQGhvdG1haWwuY29tggkA1fYi
cjZbfAgwJQYDVR0RAQH/BBswGYEXYXJkMV9raXRhcmFAaG90bWFpbC5jb20wCQYH
KoZIzjgEAwNIADBFAiEAg9yHVhSJoMNMnBS+CH8pH4cXfZqJIVFARsdwvtnkCEsC
IGXUSbdn+w/s56NMevi2ks9WeMObDifVOP5C7dJvy/Pk
-----END CERTIFICATE-----
