Certificate:
    Data:
        Version: 3 (0x2)
        Serial Number: 30 (0x1e)
    Signature Algorithm: dsaWithSHA1
        Issuer: C=CH, ST=Zurich, L=Zurich, O=ETH, OU=AppliedSecLab, CN=Core CA/emailAddress=core_ca_admin@hotmail.com
        Validity
            Not Before: Nov 18 12:50:24 2017 GMT
            Not After : Nov 18 12:50:24 2018 GMT
        Subject: C=CH, ST=Zurich, O=ETH, OU=AppliedSecLab, CN=Ard2 Kastrati/emailAddress=ard2_kitara@hotmail.com
        Subject Public Key Info:
            Public Key Algorithm: rsaEncryption
                Public-Key: (1024 bit)
                Modulus:
                    00:ac:9d:57:27:c1:68:9d:b3:6e:05:21:7e:9d:b5:
                    8c:f8:95:44:67:43:52:91:e5:b6:d5:ab:5d:42:5a:
                    08:1e:47:45:63:38:4e:fe:d8:8a:32:77:2f:2b:59:
                    da:eb:d4:5e:18:49:95:c7:12:02:da:95:42:60:f8:
                    9b:5c:6a:66:ce:98:e1:dd:d0:b1:3e:7d:f2:ba:4e:
                    ad:3d:6c:17:7e:ec:ef:c5:a4:a8:41:b0:61:5d:a0:
                    5c:24:07:3d:45:da:a3:60:94:06:45:f8:5c:ec:e2:
                    96:11:30:d1:48:93:fd:1c:47:6d:90:8c:bc:7d:38:
                    39:b8:bb:49:38:fe:ab:06:3b
                Exponent: 65537 (0x10001)
        X509v3 extensions:
            X509v3 Basic Constraints: 
                CA:FALSE
            Netscape Cert Type: 
                SSL Client, S/MIME
            X509v3 Extended Key Usage: 
                E-mail Protection
            X509v3 Subject Key Identifier: 
                88:1D:44:B0:B8:33:2B:F6:B3:2F:A6:32:7E:EA:3B:5A:5E:75:79:B1
            X509v3 Authority Key Identifier: 
                DirName:/C=CH/ST=Zurich/L=Zurich/O=ETH/OU=AppliedSecLab/CN=Core CA/emailAddress=core_ca_admin@hotmail.com
                serial:D5:F6:22:72:36:5B:7C:08

            X509v3 Subject Alternative Name: critical
                email:ard2_kitara@hotmail.com
    Signature Algorithm: dsaWithSHA1
         r:   
             00:83:dc:87:56:14:89:a0:c3:4c:9c:14:be:08:7f:
             29:1f:87:17:7d:9a:89:21:51:40:46:c7:70:be:d9:
             e4:08:4b
         s:   
             22:72:25:da:b9:b9:d5:cf:40:ef:ed:30:5a:a5:d5:
             ce:65:b5:c1:c7:32:6d:dc:18:7d:bc:86:23:4a:e7:
             1e:86
-----BEGIN CERTIFICATE-----
MIIDfTCCAySgAwIBAgIBHjAJBgcqhkjOOAQDMIGRMQswCQYDVQQGEwJDSDEPMA0G
A1UECAwGWnVyaWNoMQ8wDQYDVQQHDAZadXJpY2gxDDAKBgNVBAoMA0VUSDEWMBQG
A1UECwwNQXBwbGllZFNlY0xhYjEQMA4GA1UEAwwHQ29yZSBDQTEoMCYGCSqGSIb3
DQEJARYZY29yZV9jYV9hZG1pbkBob3RtYWlsLmNvbTAeFw0xNzExMTgxMjUwMjRa
Fw0xODExMTgxMjUwMjRaMIGEMQswCQYDVQQGEwJDSDEPMA0GA1UECAwGWnVyaWNo
MQwwCgYDVQQKDANFVEgxFjAUBgNVBAsMDUFwcGxpZWRTZWNMYWIxFjAUBgNVBAMM
DUFyZDIgS2FzdHJhdGkxJjAkBgkqhkiG9w0BCQEWF2FyZDJfa2l0YXJhQGhvdG1h
aWwuY29tMIGfMA0GCSqGSIb3DQEBAQUAA4GNADCBiQKBgQCsnVcnwWids24FIX6d
tYz4lURnQ1KR5bbVq11CWggeR0VjOE7+2Ioydy8rWdrr1F4YSZXHEgLalUJg+Jtc
ambOmOHd0LE+ffK6Tq09bBd+7O/FpKhBsGFdoFwkBz1F2qNglAZF+Fzs4pYRMNFI
k/0cR22QjLx9ODm4u0k4/qsGOwIDAQABo4IBMDCCASwwCQYDVR0TBAIwADARBglg
hkgBhvhCAQEEBAMCBaAwEwYDVR0lBAwwCgYIKwYBBQUHAwQwHQYDVR0OBBYEFIgd
RLC4Myv2sy+mMn7qO1pedXmxMIGwBgNVHSMEgagwgaWhgZekgZQwgZExCzAJBgNV
BAYTAkNIMQ8wDQYDVQQIDAZadXJpY2gxDzANBgNVBAcMBlp1cmljaDEMMAoGA1UE
CgwDRVRIMRYwFAYDVQQLDA1BcHBsaWVkU2VjTGFiMRAwDgYDVQQDDAdDb3JlIENB
MSgwJgYJKoZIhvcNAQkBFhljb3JlX2NhX2FkbWluQGhvdG1haWwuY29tggkA1fYi
cjZbfAgwJQYDVR0RAQH/BBswGYEXYXJkMl9raXRhcmFAaG90bWFpbC5jb20wCQYH
KoZIzjgEAwNIADBFAiEAg9yHVhSJoMNMnBS+CH8pH4cXfZqJIVFARsdwvtnkCEsC
ICJyJdq5udXPQO/tMFql1c5ltcHHMm3cGH28hiNK5x6G
-----END CERTIFICATE-----
