Certificate:
    Data:
        Version: 3 (0x2)
        Serial Number: 24 (0x18)
    Signature Algorithm: sha1WithRSAEncryption
        Issuer: C=CH, ST=Zurich, L=Zurich, O=ETH, OU=AppliedSecLab, CN=Core CA/emailAddress=core_ca_admin@test.com
        Validity
            Not Before: Nov 18 15:24:35 2017 GMT
            Not After : Nov 18 15:24:35 2018 GMT
        Subject: C=CH, ST=Zurich, O=ETH, OU=AppliedSecLab, CN=admin/emailAddress=admin@asl.ethz.ch
        Subject Public Key Info:
            Public Key Algorithm: rsaEncryption
                Public-Key: (1024 bit)
                Modulus:
                    00:e1:71:84:bd:14:2d:7b:86:cd:a2:42:c0:0c:c3:
                    f6:78:b3:48:0a:1f:40:2b:51:b8:65:b3:32:1b:92:
                    21:41:e4:23:15:ef:07:d0:e2:1b:74:58:70:bc:d9:
                    14:a0:c1:61:e0:77:5d:74:a0:f1:38:65:03:58:0d:
                    00:e1:60:2c:00:49:b1:d2:f7:43:c2:c4:cb:20:f2:
                    c0:34:69:84:93:4a:07:9a:1b:c4:12:09:e7:81:54:
                    7c:f6:fa:e7:8a:d8:27:c6:7e:8d:56:28:a1:09:10:
                    4f:fd:5d:ab:df:e6:97:7c:ff:f6:b0:b4:80:8e:81:
                    ad:fa:e6:72:bf:47:22:49:2b
                Exponent: 65537 (0x10001)
        X509v3 extensions:
            X509v3 Basic Constraints: 
                CA:FALSE
            Netscape Cert Type: 
                SSL Client, S/MIME
            X509v3 Extended Key Usage: 
                TLS Web Client Authentication, E-mail Protection
            X509v3 Subject Key Identifier: 
                2B:CF:AE:40:49:A4:67:64:7F:5A:78:C5:4D:B4:20:49:DF:58:D1:44
            X509v3 Authority Key Identifier: 
                keyid:A1:8C:0F:69:52:87:84:63:CF:CD:A3:0D:7A:7B:45:CD:94:F6:90:76

            X509v3 Subject Alternative Name: critical
                email:admin@asl.ethz.ch
    Signature Algorithm: sha1WithRSAEncryption
         0a:71:49:75:4c:3d:d8:93:df:78:7d:e3:39:48:c5:9f:38:0e:
         fb:63:7a:36:e8:74:fd:a4:42:98:23:b5:54:28:c0:ac:e6:24:
         05:c4:ee:94:4d:1a:bc:fe:7d:af:e4:97:ce:43:b6:06:01:dd:
         ec:92:18:4b:11:9f:64:c4:5d:c8:0c:78:8d:4f:89:8e:30:c1:
         46:ca:87:a6:8b:83:66:83:88:db:cb:56:3f:16:df:5e:c7:b2:
         2b:9a:19:44:1c:23:20:1e:87:f4:5b:df:d3:de:e5:18:05:a3:
         91:4f:65:0e:08:40:ed:bd:4d:8a:64:ca:a9:81:b9:74:2b:76:
         d8:cb:b6:0f:11:fb:50:e0:01:5d:45:4e:2e:e3:1c:8a:9f:e8:
         9c:3c:b9:20:9d:9c:ce:1d:68:98:35:b2:83:3c:89:02:c2:65:
         e0:47:27:37:6b:dc:62:fd:b0:55:fd:76:b3:0d:f1:ee:bf:63:
         01:d6:84:46:ac:f1:6b:5c:74:84:ba:24:f3:ef:75:91:5b:28:
         fc:c2:c8:ad:a8:12:02:6b:fd:ac:13:1a:e9:48:ba:c5:5a:7d:
         fd:cf:9b:12:98:b1:47:46:8d:b2:57:93:76:5e:1b:90:9b:bd:
         06:2b:6c:c3:69:7d:57:4c:83:af:7e:c6:cf:24:8b:30:b7:e2:
         59:b2:84:49
-----BEGIN CERTIFICATE-----
MIIDnjCCAoagAwIBAgIBGDANBgkqhkiG9w0BAQUFADCBjjELMAkGA1UEBhMCQ0gx
DzANBgNVBAgMBlp1cmljaDEPMA0GA1UEBwwGWnVyaWNoMQwwCgYDVQQKDANFVEgx
FjAUBgNVBAsMDUFwcGxpZWRTZWNMYWIxEDAOBgNVBAMMB0NvcmUgQ0ExJTAjBgkq
hkiG9w0BCQEWFmNvcmVfY2FfYWRtaW5AdGVzdC5jb20wHhcNMTcxMTE4MTUyNDM1
WhcNMTgxMTE4MTUyNDM1WjB2MQswCQYDVQQGEwJDSDEPMA0GA1UECAwGWnVyaWNo
MQwwCgYDVQQKDANFVEgxFjAUBgNVBAsMDUFwcGxpZWRTZWNMYWIxDjAMBgNVBAMM
BWFkbWluMSAwHgYJKoZIhvcNAQkBFhFhZG1pbkBhc2wuZXRoei5jaDCBnzANBgkq
hkiG9w0BAQEFAAOBjQAwgYkCgYEA4XGEvRQte4bNokLADMP2eLNICh9AK1G4ZbMy
G5IhQeQjFe8H0OIbdFhwvNkUoMFh4HdddKDxOGUDWA0A4WAsAEmx0vdDwsTLIPLA
NGmEk0oHmhvEEgnngVR89vrnitgnxn6NViihCRBP/V2r3+aXfP/2sLSAjoGt+uZy
v0ciSSsCAwEAAaOBoTCBnjAJBgNVHRMEAjAAMBEGCWCGSAGG+EIBAQQEAwIFoDAd
BgNVHSUEFjAUBggrBgEFBQcDAgYIKwYBBQUHAwQwHQYDVR0OBBYEFCvPrkBJpGdk
f1p4xU20IEnfWNFEMB8GA1UdIwQYMBaAFKGMD2lSh4Rjz82jDXp7Rc2U9pB2MB8G
A1UdEQEB/wQVMBOBEWFkbWluQGFzbC5ldGh6LmNoMA0GCSqGSIb3DQEBBQUAA4IB
AQAKcUl1TD3Yk994feM5SMWfOA77Y3o26HT9pEKYI7VUKMCs5iQFxO6UTRq8/n2v
5JfOQ7YGAd3skhhLEZ9kxF3IDHiNT4mOMMFGyoemi4Nmg4jby1Y/Ft9ex7IrmhlE
HCMgHof0W9/T3uUYBaORT2UOCEDtvU2KZMqpgbl0K3bYy7YPEftQ4AFdRU4u4xyK
n+icPLkgnZzOHWiYNbKDPIkCwmXgRyc3a9xi/bBV/XazDfHuv2MB1oRGrPFrXHSE
uiTz73WRWyj8wsitqBICa/2sExrpSLrFWn39z5sSmLFHRo2yV5N2XhuQm70GK2zD
aX1XTIOvfsbPJIswt+JZsoRJ
-----END CERTIFICATE-----
