Certificate:
    Data:
        Version: 3 (0x2)
        Serial Number: 1 (0x1)
    Signature Algorithm: sha1WithRSAEncryption
        Issuer: C=CH, ST=Zurich, L=Zurich, O=ETH, OU=AppliedSecLab, CN=Core CA/emailAddress=core_ca_admin@test.com
        Validity
            Not Before: Nov  9 22:01:39 2017 GMT
            Not After : Nov  9 22:01:39 2018 GMT
        Subject: C=CH, ST=Zurich, O=ETH, OU=AppliedSecLab, CN=David Basin
        Subject Public Key Info:
            Public Key Algorithm: rsaEncryption
                Public-Key: (1024 bit)
                Modulus:
                    00:c3:8b:e7:59:c4:6f:25:fb:af:44:16:f5:01:88:
                    71:01:3b:49:57:c4:ca:5d:a2:47:5a:26:39:82:d3:
                    ce:e4:cd:3b:a6:d2:c9:c3:36:13:a4:99:70:ed:96:
                    d2:67:cb:07:00:d2:ba:71:80:65:18:47:eb:2a:b1:
                    87:b5:12:6e:ba:98:38:aa:8a:c0:25:e8:f7:bb:86:
                    f4:1c:d8:98:ea:2d:0c:29:21:c3:96:80:0e:b1:ae:
                    c5:0b:de:f1:41:88:70:7e:35:84:5c:5d:6b:c2:25:
                    ae:d2:f1:54:28:d4:ef:c5:84:2e:ee:a6:20:70:88:
                    a4:dc:ef:5e:c0:bd:b6:85:11
                Exponent: 65537 (0x10001)
        X509v3 extensions:
            X509v3 Basic Constraints: 
                CA:FALSE
            X509v3 Subject Key Identifier: 
                13:58:5B:D3:F5:A5:AA:80:87:2C:42:20:BA:6A:C7:DA:25:22:CC:BB
            X509v3 Authority Key Identifier: 
                keyid:A1:8C:0F:69:52:87:84:63:CF:CD:A3:0D:7A:7B:45:CD:94:F6:90:76

            X509v3 Subject Alternative Name: 
                email:db@imovies.ch
    Signature Algorithm: sha1WithRSAEncryption
         5b:f7:d2:e9:5d:c7:6b:64:49:9d:33:01:e7:19:72:d1:a0:81:
         88:fe:35:9f:e5:48:e5:6c:b2:d8:50:1a:2b:d0:a7:84:2b:99:
         0d:d2:4f:7e:cd:b5:68:2b:36:c8:2c:b2:ac:fb:14:c3:23:ca:
         9e:3e:50:94:91:e0:03:5d:51:90:fe:6f:f8:42:b1:f5:4d:94:
         66:1f:5d:0c:49:a0:50:5d:15:a4:1b:2e:a8:97:b3:45:33:79:
         db:00:0a:e1:7e:1c:65:c3:2d:70:b6:b7:e1:44:74:f3:04:4f:
         6d:83:16:26:69:13:a0:31:3c:96:65:0d:ff:a3:e6:60:5d:67:
         7a:83:c7:4a:a9:f3:3c:a1:6f:72:01:6b:1a:78:c8:84:e8:32:
         0f:7c:7a:e4:57:a4:3d:b6:3e:c6:4e:93:01:d5:79:bd:1f:ef:
         2c:32:e6:6f:27:8b:f0:01:fd:4a:a2:fe:63:2c:b2:89:f7:a3:
         71:8d:18:fc:ed:bf:2e:12:dc:66:1a:c5:b9:e1:de:8b:0b:13:
         a6:ce:c3:9a:27:74:1c:00:1d:c3:ab:06:60:b6:db:68:ae:55:
         65:fe:dd:dc:72:09:76:b2:ea:96:8b:e4:0d:ce:b6:67:39:7a:
         d8:e3:30:34:ba:1f:75:6f:fb:a9:0b:17:bf:07:ab:51:3a:39:
         e2:b6:a8:67
-----BEGIN CERTIFICATE-----
MIIDRzCCAi+gAwIBAgIBATANBgkqhkiG9w0BAQUFADCBjjELMAkGA1UEBhMCQ0gx
DzANBgNVBAgMBlp1cmljaDEPMA0GA1UEBwwGWnVyaWNoMQwwCgYDVQQKDANFVEgx
FjAUBgNVBAsMDUFwcGxpZWRTZWNMYWIxEDAOBgNVBAMMB0NvcmUgQ0ExJTAjBgkq
hkiG9w0BCQEWFmNvcmVfY2FfYWRtaW5AdGVzdC5jb20wHhcNMTcxMTA5MjIwMTM5
WhcNMTgxMTA5MjIwMTM5WjBaMQswCQYDVQQGEwJDSDEPMA0GA1UECAwGWnVyaWNo
MQwwCgYDVQQKDANFVEgxFjAUBgNVBAsMDUFwcGxpZWRTZWNMYWIxFDASBgNVBAMM
C0RhdmlkIEJhc2luMIGfMA0GCSqGSIb3DQEBAQUAA4GNADCBiQKBgQDDi+dZxG8l
+69EFvUBiHEBO0lXxMpdokdaJjmC087kzTum0snDNhOkmXDtltJnywcA0rpxgGUY
R+sqsYe1Em66mDiqisAl6Pe7hvQc2JjqLQwpIcOWgA6xrsUL3vFBiHB+NYRcXWvC
Ja7S8VQo1O/FhC7upiBwiKTc717AvbaFEQIDAQABo2cwZTAJBgNVHRMEAjAAMB0G
A1UdDgQWBBQTWFvT9aWqgIcsQiC6asfaJSLMuzAfBgNVHSMEGDAWgBShjA9pUoeE
Y8/Now16e0XNlPaQdjAYBgNVHREEETAPgQ1kYkBpbW92aWVzLmNoMA0GCSqGSIb3
DQEBBQUAA4IBAQBb99LpXcdrZEmdMwHnGXLRoIGI/jWf5UjlbLLYUBor0KeEK5kN
0k9+zbVoKzbILLKs+xTDI8qePlCUkeADXVGQ/m/4QrH1TZRmH10MSaBQXRWkGy6o
l7NFM3nbAArhfhxlwy1wtrfhRHTzBE9tgxYmaROgMTyWZQ3/o+ZgXWd6g8dKqfM8
oW9yAWsaeMiE6DIPfHrkV6Q9tj7GTpMB1Xm9H+8sMuZvJ4vwAf1Kov5jLLKJ96Nx
jRj87b8uEtxmGsW54d6LCxOmzsOaJ3QcAB3DqwZgtttorlVl/t3ccgl2suqWi+QN
zrZnOXrY4zA0uh91b/upCxe/B6tROjnitqhn
-----END CERTIFICATE-----
