Certificate:
    Data:
        Version: 3 (0x2)
        Serial Number: 5 (0x5)
    Signature Algorithm: sha1WithRSAEncryption
        Issuer: C=CH, ST=Zurich, L=Zurich, O=ETH, OU=AppliedSecLab, CN=Core CA/emailAddress=core_ca_admin@test.com
        Validity
            Not Before: Nov 11 14:57:50 2017 GMT
            Not After : Nov 11 14:57:50 2018 GMT
        Subject: C=CH, ST=Zurich, O=ETH, OU=AppliedSecLab, CN=David Basin/emailAddress=db@imovie.ch
        Subject Public Key Info:
            Public Key Algorithm: rsaEncryption
                Public-Key: (2048 bit)
                Modulus:
                    00:94:b0:76:a5:0d:c5:e0:e8:71:e1:fc:6b:00:32:
                    07:0f:92:f6:8d:02:85:1e:7d:37:c1:53:e2:b1:bd:
                    7f:23:9e:b9:40:04:f7:bf:d0:9c:b4:35:db:32:5b:
                    65:d5:ff:57:e1:59:af:7a:4b:21:39:b4:b6:dd:b2:
                    61:6b:04:24:eb:7a:32:ef:87:39:57:ee:1c:43:40:
                    68:ee:9b:3a:22:5f:d5:39:31:ce:3e:2e:b5:d1:7a:
                    c0:a6:4b:18:5f:8b:2d:f6:80:f3:b2:8c:ae:bb:b5:
                    76:a2:2d:d2:15:af:64:cb:51:ed:22:f9:92:b4:36:
                    00:f7:4c:96:bf:ad:92:e1:1e:0a:f0:ef:9b:00:4b:
                    6e:ae:f9:8a:d1:7e:bf:c3:1b:cd:00:b9:07:da:9c:
                    4f:d5:8b:82:4a:b6:d1:93:e0:5d:83:74:b6:2c:56:
                    84:de:58:7f:5d:9c:1c:0e:3a:21:7a:b4:d5:63:45:
                    b9:bf:0f:cc:f4:42:9b:33:38:ff:d9:e7:eb:16:ca:
                    c7:07:ae:55:97:6d:79:fd:f1:df:8b:49:62:18:64:
                    02:13:86:47:6d:d3:be:a8:c6:d7:ee:f1:2a:9a:07:
                    e5:47:47:d8:e5:63:ff:6f:6b:76:a2:8c:5c:5c:0d:
                    9f:c2:db:51:2e:e3:59:99:75:ab:4a:72:19:a6:77:
                    6f:0b
                Exponent: 65537 (0x10001)
        X509v3 extensions:
            X509v3 Basic Constraints: 
                CA:FALSE
            Netscape Cert Type: 
                SSL Client, S/MIME
            X509v3 Extended Key Usage: 
                E-mail Protection
            X509v3 Subject Key Identifier: 
                52:55:F0:B2:89:DA:54:28:BE:E7:E4:88:9C:86:15:23:1A:08:13:F0
            X509v3 Authority Key Identifier: 
                keyid:A1:8C:0F:69:52:87:84:63:CF:CD:A3:0D:7A:7B:45:CD:94:F6:90:76

            X509v3 Subject Alternative Name: 
                email:db@imovie.ch
    Signature Algorithm: sha1WithRSAEncryption
         18:cf:34:0f:fc:a4:5b:47:b3:d2:67:9d:6b:bb:59:37:df:0d:
         3d:1c:fc:23:bb:e2:b9:ad:c9:9f:5c:71:af:bf:ba:58:40:e1:
         97:06:97:d5:39:e2:0a:6e:4b:ea:53:9e:72:d3:9c:fd:44:50:
         5f:ae:34:cf:ea:cc:1a:00:54:a3:79:1a:e7:a6:dd:ac:8b:5d:
         0f:bf:d5:aa:c2:81:c3:cc:3c:91:4b:50:20:6f:8b:90:b3:e3:
         40:17:76:f2:5e:05:cd:9f:f8:6c:f0:ea:54:fb:e1:4e:f2:92:
         a9:46:54:2f:f8:e1:68:c0:39:fe:34:b7:95:60:60:7c:b5:dd:
         41:05:bb:8a:75:1b:7c:a4:ec:8a:66:6e:f4:70:1a:fe:70:29:
         2f:e4:19:56:97:8d:63:62:b1:02:a5:71:29:6d:5e:bc:f3:b6:
         62:ea:3f:8a:2e:8e:df:6d:19:fd:cb:fa:e9:ff:17:74:95:04:
         9a:2c:6c:99:c8:f4:d5:59:4c:fb:62:b8:a2:9a:f7:8f:d0:93:
         72:6f:db:c9:8f:89:93:bb:0a:96:26:49:dc:e0:4c:84:69:cf:
         22:3f:42:e3:7b:1f:21:2a:f0:98:df:8a:a5:33:8c:a3:80:99:
         39:4e:d7:3a:a7:4f:57:34:c8:56:11:ad:89:ec:70:35:77:4c:
         54:58:32:bb
-----BEGIN CERTIFICATE-----
MIIEETCCAvmgAwIBAgIBBTANBgkqhkiG9w0BAQUFADCBjjELMAkGA1UEBhMCQ0gx
DzANBgNVBAgMBlp1cmljaDEPMA0GA1UEBwwGWnVyaWNoMQwwCgYDVQQKDANFVEgx
FjAUBgNVBAsMDUFwcGxpZWRTZWNMYWIxEDAOBgNVBAMMB0NvcmUgQ0ExJTAjBgkq
hkiG9w0BCQEWFmNvcmVfY2FfYWRtaW5AdGVzdC5jb20wHhcNMTcxMTExMTQ1NzUw
WhcNMTgxMTExMTQ1NzUwWjB3MQswCQYDVQQGEwJDSDEPMA0GA1UECAwGWnVyaWNo
MQwwCgYDVQQKDANFVEgxFjAUBgNVBAsMDUFwcGxpZWRTZWNMYWIxFDASBgNVBAMM
C0RhdmlkIEJhc2luMRswGQYJKoZIhvcNAQkBFgxkYkBpbW92aWUuY2gwggEiMA0G
CSqGSIb3DQEBAQUAA4IBDwAwggEKAoIBAQCUsHalDcXg6HHh/GsAMgcPkvaNAoUe
fTfBU+KxvX8jnrlABPe/0Jy0NdsyW2XV/1fhWa96SyE5tLbdsmFrBCTrejLvhzlX
7hxDQGjumzoiX9U5Mc4+LrXResCmSxhfiy32gPOyjK67tXaiLdIVr2TLUe0i+ZK0
NgD3TJa/rZLhHgrw75sAS26u+YrRfr/DG80AuQfanE/Vi4JKttGT4F2DdLYsVoTe
WH9dnBwOOiF6tNVjRbm/D8z0QpszOP/Z5+sWyscHrlWXbXn98d+LSWIYZAIThkdt
076oxtfu8SqaB+VHR9jlY/9va3aijFxcDZ/C21Eu41mZdatKchmmd28LAgMBAAGj
gY8wgYwwCQYDVR0TBAIwADARBglghkgBhvhCAQEEBAMCBaAwEwYDVR0lBAwwCgYI
KwYBBQUHAwQwHQYDVR0OBBYEFFJV8LKJ2lQovufkiJyGFSMaCBPwMB8GA1UdIwQY
MBaAFKGMD2lSh4Rjz82jDXp7Rc2U9pB2MBcGA1UdEQQQMA6BDGRiQGltb3ZpZS5j
aDANBgkqhkiG9w0BAQUFAAOCAQEAGM80D/ykW0ez0meda7tZN98NPRz8I7viua3J
n1xxr7+6WEDhlwaX1TniCm5L6lOectOc/URQX640z+rMGgBUo3ka56bdrItdD7/V
qsKBw8w8kUtQIG+LkLPjQBd28l4FzZ/4bPDqVPvhTvKSqUZUL/jhaMA5/jS3lWBg
fLXdQQW7inUbfKTsimZu9HAa/nApL+QZVpeNY2KxAqVxKW1evPO2Yuo/ii6O320Z
/cv66f8XdJUEmixsmcj01VlM+2K4opr3j9CTcm/byY+Jk7sKliZJ3OBMhGnPIj9C
43sfISrwmN+KpTOMo4CZOU7XOqdPVzTIVhGtiexwNXdMVFgyuw==
-----END CERTIFICATE-----
