Certificate:
    Data:
        Version: 3 (0x2)
        Serial Number: 6 (0x6)
    Signature Algorithm: sha1WithRSAEncryption
        Issuer: C=CH, ST=Zurich, L=Zurich, O=ETH, OU=AppliedSecLab, CN=Core CA/emailAddress=core_ca_admin@test.com
        Validity
            Not Before: Nov 11 15:12:51 2017 GMT
            Not After : Nov 11 15:12:51 2018 GMT
        Subject: C=CH, ST=Zurich, O=ETH, OU=AppliedSecLab, CN=Test/emailAddress=test
        Subject Public Key Info:
            Public Key Algorithm: rsaEncryption
                Public-Key: (2048 bit)
                Modulus:
                    00:c4:63:44:69:03:7f:4a:9f:69:22:e8:ba:db:14:
                    b1:5d:0d:06:62:6e:78:88:a6:23:c6:87:cd:55:83:
                    0f:9e:60:50:0c:6f:45:43:04:7d:85:91:11:e9:c6:
                    32:8c:b1:ed:84:b8:d4:ba:5e:b1:ee:5f:02:eb:92:
                    76:87:df:90:e9:57:af:d1:93:5e:44:d0:5f:5a:b6:
                    51:8a:64:35:8a:e4:78:39:88:1c:31:3d:a7:3f:e1:
                    68:43:83:e4:e9:fb:0d:58:ac:30:26:35:80:68:f7:
                    a9:dd:ab:54:62:92:18:04:66:b0:94:6f:f3:57:24:
                    13:b6:1c:41:48:ad:65:cf:fc:2d:bd:96:37:5b:d8:
                    18:98:42:1c:4c:61:b9:60:71:97:c2:eb:24:44:29:
                    b8:11:e4:52:50:b5:3d:0d:b5:2a:34:89:9a:29:63:
                    a2:2f:22:4b:e2:e9:ed:a7:dc:8e:62:55:48:d5:42:
                    cb:60:4c:14:a0:93:0e:1b:ad:e1:2b:48:40:25:bf:
                    bd:e1:4f:e6:7f:85:09:f2:9c:0c:c7:6c:c1:94:c5:
                    5c:1f:f2:22:74:46:70:a6:6d:20:13:11:4c:ff:2e:
                    91:dc:24:3e:d0:f0:60:70:93:99:f6:b1:07:e1:6b:
                    65:f9:b2:39:58:9f:24:49:91:f5:78:9f:a4:c0:a2:
                    ed:9f
                Exponent: 65537 (0x10001)
        X509v3 extensions:
            X509v3 Basic Constraints: 
                CA:FALSE
            Netscape Cert Type: 
                SSL Client, S/MIME
            X509v3 Extended Key Usage: 
                E-mail Protection
            X509v3 Subject Key Identifier: 
                B9:3C:70:8D:4E:8C:F7:68:D5:EF:C5:AF:98:5E:38:FD:BD:03:B1:A4
            X509v3 Authority Key Identifier: 
                keyid:A1:8C:0F:69:52:87:84:63:CF:CD:A3:0D:7A:7B:45:CD:94:F6:90:76

            X509v3 Subject Alternative Name: 
                email:test
    Signature Algorithm: sha1WithRSAEncryption
         b7:cd:53:93:e3:51:92:69:47:36:50:3a:50:b8:f7:33:05:b0:
         a7:8c:9e:90:c5:9b:d0:90:a2:64:7e:0b:a8:ea:30:77:28:c4:
         59:1f:b1:65:88:ed:5a:a4:d8:ac:e8:b9:41:f0:33:91:ac:99:
         72:c0:12:b3:43:e1:ea:ea:41:2e:e6:46:87:e5:29:fa:8b:b6:
         70:d8:e2:45:58:74:62:06:40:ae:69:c4:62:9d:55:f2:77:dc:
         42:1b:90:49:70:ca:ed:58:42:bf:e5:a4:44:ac:34:a0:f8:99:
         6a:27:27:67:63:ab:4a:7f:d3:1f:50:47:32:97:a7:ec:82:b5:
         7c:e3:55:b4:91:ae:69:cb:c2:66:0f:ce:00:d3:88:ba:66:ab:
         a6:48:de:c1:2c:0d:c8:47:11:f7:73:0f:7e:78:63:fb:75:bc:
         31:1f:7c:df:9d:1c:6e:e5:cf:cc:a2:60:04:32:72:10:d9:bd:
         92:b2:c0:65:a2:45:6b:43:1d:69:8b:09:a3:d2:ac:b2:60:4b:
         ce:91:93:ce:b5:e6:52:ac:36:6d:d3:04:67:4b:8a:e7:71:dc:
         1f:fb:36:78:24:51:ab:a5:f1:e2:8b:aa:5e:71:59:f0:c5:de:
         9d:75:58:eb:3c:5f:50:1c:67:57:02:1f:15:80:be:4b:7b:28:
         87:8f:dc:36
-----BEGIN CERTIFICATE-----
MIID+jCCAuKgAwIBAgIBBjANBgkqhkiG9w0BAQUFADCBjjELMAkGA1UEBhMCQ0gx
DzANBgNVBAgMBlp1cmljaDEPMA0GA1UEBwwGWnVyaWNoMQwwCgYDVQQKDANFVEgx
FjAUBgNVBAsMDUFwcGxpZWRTZWNMYWIxEDAOBgNVBAMMB0NvcmUgQ0ExJTAjBgkq
hkiG9w0BCQEWFmNvcmVfY2FfYWRtaW5AdGVzdC5jb20wHhcNMTcxMTExMTUxMjUx
WhcNMTgxMTExMTUxMjUxWjBoMQswCQYDVQQGEwJDSDEPMA0GA1UECAwGWnVyaWNo
MQwwCgYDVQQKDANFVEgxFjAUBgNVBAsMDUFwcGxpZWRTZWNMYWIxDTALBgNVBAMM
BFRlc3QxEzARBgkqhkiG9w0BCQEWBHRlc3QwggEiMA0GCSqGSIb3DQEBAQUAA4IB
DwAwggEKAoIBAQDEY0RpA39Kn2ki6LrbFLFdDQZibniIpiPGh81Vgw+eYFAMb0VD
BH2FkRHpxjKMse2EuNS6XrHuXwLrknaH35DpV6/Rk15E0F9atlGKZDWK5Hg5iBwx
Pac/4WhDg+Tp+w1YrDAmNYBo96ndq1RikhgEZrCUb/NXJBO2HEFIrWXP/C29ljdb
2BiYQhxMYblgcZfC6yREKbgR5FJQtT0NtSo0iZopY6IvIkvi6e2n3I5iVUjVQstg
TBSgkw4breErSEAlv73hT+Z/hQnynAzHbMGUxVwf8iJ0RnCmbSATEUz/LpHcJD7Q
8GBwk5n2sQfha2X5sjlYnyRJkfV4n6TAou2fAgMBAAGjgYcwgYQwCQYDVR0TBAIw
ADARBglghkgBhvhCAQEEBAMCBaAwEwYDVR0lBAwwCgYIKwYBBQUHAwQwHQYDVR0O
BBYEFLk8cI1OjPdo1e/Fr5heOP29A7GkMB8GA1UdIwQYMBaAFKGMD2lSh4Rjz82j
DXp7Rc2U9pB2MA8GA1UdEQQIMAaBBHRlc3QwDQYJKoZIhvcNAQEFBQADggEBALfN
U5PjUZJpRzZQOlC49zMFsKeMnpDFm9CQomR+C6jqMHcoxFkfsWWI7Vqk2KzouUHw
M5GsmXLAErND4erqQS7mRoflKfqLtnDY4kVYdGIGQK5pxGKdVfJ33EIbkElwyu1Y
Qr/lpESsNKD4mWonJ2djq0p/0x9QRzKXp+yCtXzjVbSRrmnLwmYPzgDTiLpmq6ZI
3sEsDchHEfdzD354Y/t1vDEffN+dHG7lz8yiYAQychDZvZKywGWiRWtDHWmLCaPS
rLJgS86Rk8615lKsNm3TBGdLiudx3B/7NngkUaul8eKLql5xWfDF3p11WOs8X1Ac
Z1cCHxWAvkt7KIeP3DY=
-----END CERTIFICATE-----
