Certificate:
    Data:
        Version: 3 (0x2)
        Serial Number: 7 (0x7)
    Signature Algorithm: sha1WithRSAEncryption
        Issuer: C=CH, ST=Zurich, L=Zurich, O=ETH, OU=AppliedSecLab, CN=Core CA/emailAddress=core_ca_admin@test.com
        Validity
            Not Before: Nov 11 15:20:18 2017 GMT
            Not After : Nov 11 15:20:18 2018 GMT
        Subject: C=CH, ST=Zurich, O=ETH, OU=AppliedSecLab, CN=David Basin/emailAddress=test@imovie.ch
        Subject Public Key Info:
            Public Key Algorithm: rsaEncryption
                Public-Key: (2048 bit)
                Modulus:
                    00:c3:03:f5:6a:28:96:1d:35:1a:7b:6b:56:65:8f:
                    ae:65:2c:1e:ab:2d:b9:61:fa:5a:58:0c:e9:7f:79:
                    ff:5d:95:23:f0:19:be:23:6f:8a:2a:66:82:40:e2:
                    9d:b4:8e:82:e4:78:f7:13:5b:d4:08:4c:78:3a:be:
                    48:84:3d:ea:d2:93:c4:62:d6:6d:83:c9:56:75:a4:
                    cf:28:1c:64:da:7b:fe:ea:de:38:c3:06:78:f7:3e:
                    8d:e0:5d:17:6d:3d:2c:db:47:c5:04:6c:42:31:36:
                    2a:ed:a2:42:fb:4c:ea:d0:13:58:37:47:5d:43:8f:
                    f8:b8:51:73:fe:27:95:b0:3d:e9:f9:24:80:2d:97:
                    06:2d:0b:24:d4:3e:e9:0f:4d:57:f4:6c:e5:d3:82:
                    5a:fc:83:b5:dd:42:da:e9:58:a1:d6:93:8a:62:6d:
                    23:12:56:60:e0:f6:97:de:1f:3e:35:23:08:1f:37:
                    49:a7:27:66:34:7d:50:84:f7:ae:69:f2:9a:80:00:
                    06:88:da:b9:61:44:d1:c8:e9:22:d5:31:77:4b:35:
                    7c:84:61:ef:db:d4:23:1c:ee:d3:b5:1a:b7:2a:56:
                    6a:76:03:52:40:09:81:b1:10:37:7e:30:f1:1b:db:
                    e2:bf:15:e0:c9:b6:d2:25:49:61:87:c2:82:1c:91:
                    3b:8b
                Exponent: 65537 (0x10001)
        X509v3 extensions:
            X509v3 Basic Constraints: 
                CA:FALSE
            Netscape Cert Type: 
                SSL Client, S/MIME
            X509v3 Extended Key Usage: 
                E-mail Protection
            X509v3 Subject Key Identifier: 
                33:6C:6B:2D:8A:86:C3:C0:72:5E:15:18:48:20:90:68:7B:40:27:91
            X509v3 Authority Key Identifier: 
                keyid:A1:8C:0F:69:52:87:84:63:CF:CD:A3:0D:7A:7B:45:CD:94:F6:90:76

            X509v3 Subject Alternative Name: critical
                email:test@imovie.ch
    Signature Algorithm: sha1WithRSAEncryption
         5f:29:dd:53:d5:aa:4d:14:07:fe:98:7c:c9:70:c3:1d:33:62:
         25:cb:a3:76:44:f1:a9:33:96:8e:bf:70:50:bb:ed:b5:43:cb:
         e6:86:72:f8:34:8c:a5:c9:87:a1:c5:38:f5:87:db:e2:0a:83:
         2d:09:2b:92:86:20:53:0d:e0:39:23:c7:b1:e8:a4:8c:e7:44:
         b2:78:1c:f1:d0:6d:6e:16:2b:0c:bf:ec:ea:78:5c:0d:cb:7c:
         03:04:e3:ea:3e:05:82:38:d9:96:f6:86:eb:a5:da:4e:20:e9:
         1a:57:a3:a9:3d:1e:e3:86:47:21:0a:41:0a:e4:9c:59:ad:52:
         85:8d:07:5d:17:ef:65:21:15:de:8e:2f:c8:95:15:7e:34:ec:
         aa:cb:5a:6c:d3:67:c8:56:d9:1f:f6:fd:91:a4:b3:d0:8b:b1:
         3b:cc:35:bd:ae:e6:50:d8:9e:76:03:0b:fe:fa:5b:ff:5f:20:
         39:29:a3:bd:5b:0c:97:cd:1e:aa:d2:a7:41:4f:ce:f7:b4:ae:
         25:25:18:b4:b1:ef:85:5c:5a:d9:c0:ba:c1:95:46:fb:d3:47:
         ad:23:3f:59:f7:74:81:98:84:fb:06:e8:ab:7e:f1:34:9b:91:
         92:68:b8:d2:0c:13:8e:ee:8b:c3:e1:c3:ae:e5:09:5f:61:e6:
         73:fc:67:05
-----BEGIN CERTIFICATE-----
MIIEGDCCAwCgAwIBAgIBBzANBgkqhkiG9w0BAQUFADCBjjELMAkGA1UEBhMCQ0gx
DzANBgNVBAgMBlp1cmljaDEPMA0GA1UEBwwGWnVyaWNoMQwwCgYDVQQKDANFVEgx
FjAUBgNVBAsMDUFwcGxpZWRTZWNMYWIxEDAOBgNVBAMMB0NvcmUgQ0ExJTAjBgkq
hkiG9w0BCQEWFmNvcmVfY2FfYWRtaW5AdGVzdC5jb20wHhcNMTcxMTExMTUyMDE4
WhcNMTgxMTExMTUyMDE4WjB5MQswCQYDVQQGEwJDSDEPMA0GA1UECAwGWnVyaWNo
MQwwCgYDVQQKDANFVEgxFjAUBgNVBAsMDUFwcGxpZWRTZWNMYWIxFDASBgNVBAMM
C0RhdmlkIEJhc2luMR0wGwYJKoZIhvcNAQkBFg50ZXN0QGltb3ZpZS5jaDCCASIw
DQYJKoZIhvcNAQEBBQADggEPADCCAQoCggEBAMMD9Woolh01GntrVmWPrmUsHqst
uWH6WlgM6X95/12VI/AZviNviipmgkDinbSOguR49xNb1AhMeDq+SIQ96tKTxGLW
bYPJVnWkzygcZNp7/ureOMMGePc+jeBdF209LNtHxQRsQjE2Ku2iQvtM6tATWDdH
XUOP+LhRc/4nlbA96fkkgC2XBi0LJNQ+6Q9NV/Rs5dOCWvyDtd1C2ulYodaTimJt
IxJWYOD2l94fPjUjCB83SacnZjR9UIT3rmnymoAABojauWFE0cjpItUxd0s1fIRh
79vUIxzu07UatypWanYDUkAJgbEQN34w8Rvb4r8V4Mm20iVJYYfCghyRO4sCAwEA
AaOBlDCBkTAJBgNVHRMEAjAAMBEGCWCGSAGG+EIBAQQEAwIFoDATBgNVHSUEDDAK
BggrBgEFBQcDBDAdBgNVHQ4EFgQUM2xrLYqGw8ByXhUYSCCQaHtAJ5EwHwYDVR0j
BBgwFoAUoYwPaVKHhGPPzaMNentFzZT2kHYwHAYDVR0RAQH/BBIwEIEOdGVzdEBp
bW92aWUuY2gwDQYJKoZIhvcNAQEFBQADggEBAF8p3VPVqk0UB/6YfMlwwx0zYiXL
o3ZE8akzlo6/cFC77bVDy+aGcvg0jKXJh6HFOPWH2+IKgy0JK5KGIFMN4Dkjx7Ho
pIznRLJ4HPHQbW4WKwy/7Op4XA3LfAME4+o+BYI42Zb2huul2k4g6RpXo6k9HuOG
RyEKQQrknFmtUoWNB10X72UhFd6OL8iVFX407KrLWmzTZ8hW2R/2/ZGks9CLsTvM
Nb2u5lDYnnYDC/76W/9fIDkpo71bDJfNHqrSp0FPzve0riUlGLSx74VcWtnAusGV
RvvTR60jP1n3dIGYhPsG6Kt+8TSbkZJouNIME47ui8Phw67lCV9h5nP8ZwU=
-----END CERTIFICATE-----
