Certificate:
    Data:
        Version: 3 (0x2)
        Serial Number: 8 (0x8)
    Signature Algorithm: sha1WithRSAEncryption
        Issuer: C=CH, ST=Zurich, L=Zurich, O=ETH, OU=AppliedSecLab, CN=Core CA/emailAddress=core_ca_admin@test.com
        Validity
            Not Before: Nov 11 15:43:30 2017 GMT
            Not After : Nov 11 15:43:30 2018 GMT
        Subject: C=CH, ST=Zurich, O=ETH, OU=AppliedSecLab, CN=Test test/emailAddress=test@imovie.ch
        Subject Public Key Info:
            Public Key Algorithm: rsaEncryption
                Public-Key: (2048 bit)
                Modulus:
                    00:bf:cb:ad:fe:6d:ba:e3:19:67:e6:3a:18:6d:8f:
                    b6:3b:3f:ba:e1:51:2b:11:8a:4a:0a:41:b7:a6:9b:
                    44:67:78:f8:3a:7c:de:79:db:89:21:ac:29:bf:95:
                    c5:c2:2f:88:6c:28:69:a2:b9:9f:19:5e:e7:0a:46:
                    2a:7f:18:5c:66:85:34:11:26:dc:1f:6a:a0:f9:11:
                    f1:e6:b5:52:b1:29:e3:28:9d:5a:3a:80:6d:71:ad:
                    11:41:41:46:b5:78:ed:2e:48:f1:12:13:b7:26:e7:
                    7a:e6:e7:70:dc:02:40:83:63:a7:bb:fc:ce:8e:03:
                    1f:50:99:a7:0a:5d:af:e8:85:89:33:a8:78:66:e8:
                    e3:fc:61:b9:48:59:3d:c0:8f:f1:80:fb:09:f8:0f:
                    c8:31:f7:0e:f2:20:a3:b4:85:23:8b:45:ba:20:77:
                    3a:60:4d:06:71:2b:24:a4:72:71:94:dc:89:86:b0:
                    0d:f4:a1:38:3b:f3:ca:64:c9:6c:8e:f8:ce:9f:5f:
                    7f:a0:f2:5b:bf:82:75:ef:46:1b:81:78:5c:bb:ef:
                    71:e8:85:34:66:a6:34:4b:4e:bc:4a:74:98:72:1d:
                    c2:9e:98:7d:66:e5:a5:92:1e:72:d3:8b:bf:dd:20:
                    3c:20:ed:e9:4a:c0:94:23:72:a3:56:32:6a:90:14:
                    12:5f
                Exponent: 65537 (0x10001)
        X509v3 extensions:
            X509v3 Basic Constraints: 
                CA:FALSE
            Netscape Cert Type: 
                SSL Client, S/MIME
            X509v3 Extended Key Usage: 
                E-mail Protection
            X509v3 Subject Key Identifier: 
                86:4F:55:69:83:3F:B3:2D:4B:25:AB:AA:77:0A:B0:F9:20:21:51:42
            X509v3 Authority Key Identifier: 
                keyid:A1:8C:0F:69:52:87:84:63:CF:CD:A3:0D:7A:7B:45:CD:94:F6:90:76

            X509v3 Subject Alternative Name: critical
                email:test@imovie.ch
    Signature Algorithm: sha1WithRSAEncryption
         42:3f:02:ef:31:dd:12:8f:76:74:6f:1c:93:83:16:8a:4e:b2:
         d2:77:d2:71:d0:2d:6f:24:3c:40:da:65:1a:cc:43:79:dc:02:
         9c:3e:f0:fa:16:80:4a:ba:77:c0:9d:22:3b:d5:d6:79:5c:99:
         ec:2e:ed:c3:1b:ad:7f:73:0f:22:3c:ee:fe:52:e8:74:d9:b5:
         3a:c5:0f:7a:d1:0c:41:b1:e3:aa:e2:c3:69:51:51:f1:21:9c:
         62:a8:50:1c:52:54:7a:5e:c5:5c:e7:00:fe:d4:f8:d5:0f:6c:
         d2:aa:55:1b:e7:ad:c4:f4:7a:44:82:ec:39:4a:e9:aa:3a:91:
         db:4b:1e:cf:03:26:d9:ac:e0:84:39:d3:81:4f:aa:a6:08:26:
         c9:12:3c:8a:9b:95:5a:e9:78:74:7f:27:0d:18:ed:ba:7d:e8:
         e0:53:b4:8f:7c:61:71:2f:d9:a0:fd:3d:d7:9f:d8:a9:be:e2:
         2a:91:63:76:dd:53:90:9e:c8:2a:6a:54:5a:8b:34:87:e0:1d:
         94:12:de:b4:08:d7:11:a5:9c:52:4c:19:d3:15:80:1d:8e:76:
         a5:32:77:e6:e4:29:0c:ec:21:03:12:b4:f7:8e:42:70:39:5f:
         c0:e9:88:a4:41:26:7a:ca:52:14:15:b5:de:22:e0:4e:74:1d:
         6f:b9:1c:f7
-----BEGIN CERTIFICATE-----
MIIEFjCCAv6gAwIBAgIBCDANBgkqhkiG9w0BAQUFADCBjjELMAkGA1UEBhMCQ0gx
DzANBgNVBAgMBlp1cmljaDEPMA0GA1UEBwwGWnVyaWNoMQwwCgYDVQQKDANFVEgx
FjAUBgNVBAsMDUFwcGxpZWRTZWNMYWIxEDAOBgNVBAMMB0NvcmUgQ0ExJTAjBgkq
hkiG9w0BCQEWFmNvcmVfY2FfYWRtaW5AdGVzdC5jb20wHhcNMTcxMTExMTU0MzMw
WhcNMTgxMTExMTU0MzMwWjB3MQswCQYDVQQGEwJDSDEPMA0GA1UECAwGWnVyaWNo
MQwwCgYDVQQKDANFVEgxFjAUBgNVBAsMDUFwcGxpZWRTZWNMYWIxEjAQBgNVBAMM
CVRlc3QgdGVzdDEdMBsGCSqGSIb3DQEJARYOdGVzdEBpbW92aWUuY2gwggEiMA0G
CSqGSIb3DQEBAQUAA4IBDwAwggEKAoIBAQC/y63+bbrjGWfmOhhtj7Y7P7rhUSsR
ikoKQbemm0RnePg6fN5524khrCm/lcXCL4hsKGmiuZ8ZXucKRip/GFxmhTQRJtwf
aqD5EfHmtVKxKeMonVo6gG1xrRFBQUa1eO0uSPESE7cm53rm53DcAkCDY6e7/M6O
Ax9QmacKXa/ohYkzqHhm6OP8YblIWT3Aj/GA+wn4D8gx9w7yIKO0hSOLRbogdzpg
TQZxKySkcnGU3ImGsA30oTg788pkyWyO+M6fX3+g8lu/gnXvRhuBeFy773HohTRm
pjRLTrxKdJhyHcKemH1m5aWSHnLTi7/dIDwg7elKwJQjcqNWMmqQFBJfAgMBAAGj
gZQwgZEwCQYDVR0TBAIwADARBglghkgBhvhCAQEEBAMCBaAwEwYDVR0lBAwwCgYI
KwYBBQUHAwQwHQYDVR0OBBYEFIZPVWmDP7MtSyWrqncKsPkgIVFCMB8GA1UdIwQY
MBaAFKGMD2lSh4Rjz82jDXp7Rc2U9pB2MBwGA1UdEQEB/wQSMBCBDnRlc3RAaW1v
dmllLmNoMA0GCSqGSIb3DQEBBQUAA4IBAQBCPwLvMd0Sj3Z0bxyTgxaKTrLSd9Jx
0C1vJDxA2mUazEN53AKcPvD6FoBKunfAnSI71dZ5XJnsLu3DG61/cw8iPO7+Uuh0
2bU6xQ960QxBseOq4sNpUVHxIZxiqFAcUlR6XsVc5wD+1PjVD2zSqlUb563E9HpE
guw5SumqOpHbSx7PAybZrOCEOdOBT6qmCCbJEjyKm5Va6Xh0fycNGO26fejgU7SP
fGFxL9mg/T3Xn9ipvuIqkWN23VOQnsgqalRaizSH4B2UEt60CNcRpZxSTBnTFYAd
jnalMnfm5CkM7CEDErT3jkJwOV/A6YikQSZ6ylIUFbXeIuBOdB1vuRz3
-----END CERTIFICATE-----
