Certificate:
    Data:
        Version: 3 (0x2)
        Serial Number: 1 (0x1)
    Signature Algorithm: sha1WithRSAEncryption
        Issuer: C=CH, ST=Z\xC3\x83\xC2\xBCrich, L=Z\xC3\x83\xC2\xBCrich, O=ETH, OU=Applied Security, CN=Group1/emailAddress=kard@student.ethz.ch
        Validity
            Not Before: Nov  6 21:42:19 2017 GMT
            Not After : Nov  6 21:42:19 2018 GMT
        Subject: C=CH, ST=Z\xC3\x83\xC2\xBCrich, O=ETH, OU=AppliedSecLab, CN=Ard
        Subject Public Key Info:
            Public Key Algorithm: rsaEncryption
                Public-Key: (1024 bit)
                Modulus:
                    00:c9:5a:18:2c:17:bb:51:8d:e0:eb:19:45:14:83:
                    a5:66:e0:b7:bd:39:8e:47:ae:23:57:0e:41:26:5c:
                    bd:48:3e:6f:74:12:34:55:1f:61:47:74:0f:29:ef:
                    ee:3b:0b:78:65:22:1f:fa:e9:b0:30:e9:85:92:ef:
                    e8:46:e5:4b:6b:22:e9:81:c6:c6:6e:b0:ee:05:cc:
                    74:f4:79:78:00:57:0c:02:3b:21:7d:63:12:88:f4:
                    71:33:6f:7c:53:3b:ae:57:9c:67:9f:b9:e3:ef:73:
                    1d:e1:1e:16:90:70:f7:3e:88:a7:25:42:b0:49:ea:
                    3a:15:92:38:66:68:94:ea:f7
                Exponent: 65537 (0x10001)
        X509v3 extensions:
            X509v3 Basic Constraints: 
                CA:FALSE
            X509v3 Subject Key Identifier: 
                A2:18:E0:61:6D:30:4C:C9:A5:83:35:44:49:CB:AD:B8:6B:46:20:03
            X509v3 Authority Key Identifier: 
                keyid:C6:85:8F:B9:A7:78:C5:14:EB:FA:26:1F:E9:BB:39:01:2C:47:9E:2C

            X509v3 Subject Alternative Name: 
                email:ard_kitara@hotmail.com
    Signature Algorithm: sha1WithRSAEncryption
         37:04:0a:1d:96:72:59:9b:7d:e7:5c:9d:68:30:7e:9b:b3:54:
         f8:7b:d5:04:a7:52:cc:83:13:d9:f1:d4:cc:c2:64:df:c4:9d:
         56:71:1c:8c:fb:8b:3c:7a:49:e0:c4:59:6f:ab:d1:04:dc:f1:
         b6:fe:71:4e:8a:c7:94:6e:e3:a2:42:02:ef:a0:5f:2c:09:2e:
         5c:6a:f0:69:cd:fa:36:37:41:3f:b1:1c:55:34:c4:69:09:26:
         11:8d:98:81:bf:53:eb:a2:27:07:12:81:6e:b5:99:aa:6a:a6:
         60:6d:cd:78:59:7e:76:e4:8b:d4:a1:e6:35:12:bc:03:28:6c:
         f7:44:27:9b:60:12:15:57:6d:33:4f:6a:15:5c:39:fc:85:e4:
         6b:a2:e5:21:9a:ea:85:92:8c:4f:fe:2f:c0:c3:a9:7d:d6:a0:
         84:59:8c:73:c3:22:6a:10:b6:5c:36:9f:74:b2:f5:bc:65:2c:
         34:41:ac:16:40:ff:df:e2:28:be:d8:d0:05:29:39:cf:89:35:
         a1:a6:42:0e:e3:75:a4:a8:02:2f:06:eb:f9:d6:37:41:e2:84:
         ed:d2:2b:83:10:b3:8e:f6:8f:76:4a:9b:a5:e2:4f:c6:a8:1e:
         e1:30:77:ab:92:fc:85:1e:c4:28:a2:68:30:7a:ec:7c:5d:85:
         f9:23:a0:43
-----BEGIN CERTIFICATE-----
MIIDUTCCAjmgAwIBAgIBATANBgkqhkiG9w0BAQUFADCBlDELMAkGA1UEBhMCQ0gx
EjAQBgNVBAgMCVrDg8K8cmljaDESMBAGA1UEBwwJWsODwrxyaWNoMQwwCgYDVQQK
DANFVEgxGTAXBgNVBAsMEEFwcGxpZWQgU2VjdXJpdHkxDzANBgNVBAMMBkdyb3Vw
MTEjMCEGCSqGSIb3DQEJARYUa2FyZEBzdHVkZW50LmV0aHouY2gwHhcNMTcxMTA2
MjE0MjE5WhcNMTgxMTA2MjE0MjE5WjBVMQswCQYDVQQGEwJDSDESMBAGA1UECAwJ
WsODwrxyaWNoMQwwCgYDVQQKDANFVEgxFjAUBgNVBAsMDUFwcGxpZWRTZWNMYWIx
DDAKBgNVBAMMA0FyZDCBnzANBgkqhkiG9w0BAQEFAAOBjQAwgYkCgYEAyVoYLBe7
UY3g6xlFFIOlZuC3vTmOR64jVw5BJly9SD5vdBI0VR9hR3QPKe/uOwt4ZSIf+umw
MOmFku/oRuVLayLpgcbGbrDuBcx09Hl4AFcMAjshfWMSiPRxM298UzuuV5xnn7nj
73Md4R4WkHD3PoinJUKwSeo6FZI4ZmiU6vcCAwEAAaNwMG4wCQYDVR0TBAIwADAd
BgNVHQ4EFgQUohjgYW0wTMmlgzVEScutuGtGIAMwHwYDVR0jBBgwFoAUxoWPuad4
xRTr+iYf6bs5ASxHniwwIQYDVR0RBBowGIEWYXJkX2tpdGFyYUBob3RtYWlsLmNv
bTANBgkqhkiG9w0BAQUFAAOCAQEANwQKHZZyWZt951ydaDB+m7NU+HvVBKdSzIMT
2fHUzMJk38SdVnEcjPuLPHpJ4MRZb6vRBNzxtv5xTorHlG7jokIC76BfLAkuXGrw
ac36NjdBP7EcVTTEaQkmEY2Ygb9T66InBxKBbrWZqmqmYG3NeFl+duSL1KHmNRK8
Ayhs90Qnm2ASFVdtM09qFVw5/IXka6LlIZrqhZKMT/4vwMOpfdaghFmMc8MiahC2
XDafdLL1vGUsNEGsFkD/3+IovtjQBSk5z4k1oaZCDuN1pKgCLwbr+dY3QeKE7dIr
gxCzjvaPdkqbpeJPxqge4TB3q5L8hR7EKKJoMHrsfF2F+SOgQw==
-----END CERTIFICATE-----
