Certificate:
    Data:
        Version: 3 (0x2)
        Serial Number: 2 (0x2)
    Signature Algorithm: sha1WithRSAEncryption
        Issuer: C=CH, ST=Zurich, L=Zurich, O=ETH, OU=AppliedSecLab, CN=Core CA/emailAddress=core_ca_admin@test.com
        Validity
            Not Before: Nov 11 13:57:56 2017 GMT
            Not After : Nov 11 13:57:56 2018 GMT
        Subject: C=CH, ST=Zurich, O=ETH, OU=AppliedSecLab, CN=Ard Kastrati
        Subject Public Key Info:
            Public Key Algorithm: rsaEncryption
                Public-Key: (2048 bit)
                Modulus:
                    00:e7:67:a9:88:fe:b7:bb:d1:d5:b3:ce:a7:b4:e5:
                    79:0b:86:51:cf:0e:40:c5:af:39:bf:ce:a2:30:c1:
                    ad:1b:ba:06:51:72:ec:be:49:b8:62:b0:9b:e5:59:
                    02:6d:36:5f:6e:55:b0:12:be:47:53:42:b2:db:a3:
                    c3:38:9a:7a:01:46:d1:3d:28:72:30:ec:3a:fb:0b:
                    34:78:b2:7b:f4:e3:a4:cd:50:7b:26:fa:8e:0c:87:
                    20:fa:9f:66:08:53:31:4c:d7:d1:1d:90:6a:74:d5:
                    0c:61:5f:3b:55:e4:6c:56:c3:55:e2:f0:e7:50:2d:
                    ca:43:bd:d0:c7:82:7d:4d:14:f6:d7:1f:81:69:76:
                    8e:d9:d1:a2:bb:b2:3d:c8:b3:d9:15:33:7a:aa:b0:
                    e8:5d:40:a7:1b:1c:d7:62:38:5d:cb:3d:e5:6a:f8:
                    3e:32:14:50:5b:b5:dc:f6:73:ec:a8:94:6e:c0:19:
                    e7:de:5c:ee:9f:21:4e:a6:28:12:7d:0e:d9:77:83:
                    15:be:7b:fc:69:3f:15:c9:24:bd:70:72:5b:11:6f:
                    e4:e1:17:dd:7b:1f:62:3a:cf:b9:13:f8:c4:59:db:
                    32:ce:01:12:eb:2e:c5:6b:bf:9d:09:ee:a8:5f:bf:
                    cd:22:43:f6:60:3c:a3:9c:5a:9e:f5:53:da:cf:00:
                    28:81
                Exponent: 65537 (0x10001)
        X509v3 extensions:
            X509v3 Basic Constraints: 
                CA:FALSE
            X509v3 Subject Key Identifier: 
                79:70:14:D3:CC:BA:FA:9B:D7:10:D6:2D:39:EA:E4:AC:CF:D0:C2:A6
            X509v3 Authority Key Identifier: 
                keyid:A1:8C:0F:69:52:87:84:63:CF:CD:A3:0D:7A:7B:45:CD:94:F6:90:76

            X509v3 Subject Alternative Name: 
                email:test
    Signature Algorithm: sha1WithRSAEncryption
         65:04:7d:bf:92:bc:13:44:7d:da:50:6c:2c:3c:0a:75:55:3a:
         6b:9d:b9:c4:4a:af:45:83:06:4e:63:a4:bf:25:33:a2:b4:97:
         d3:b3:0a:f8:da:fe:b0:56:cc:9a:01:e1:58:11:92:92:0b:92:
         d4:76:f2:39:c2:2f:f0:56:26:6e:b3:b4:48:be:d9:b9:dc:b0:
         87:10:79:60:a5:cb:33:3c:1a:22:60:b6:fa:85:6e:3c:8d:95:
         8a:58:d6:fe:b3:49:07:e5:61:74:7f:a9:36:ec:83:d2:58:9a:
         f0:b1:0f:73:12:06:84:03:c8:cc:09:8d:a0:e4:41:86:a4:d7:
         e0:de:44:fb:4a:eb:67:12:68:05:6e:38:6c:5d:91:29:b4:bc:
         b3:70:e6:f3:cb:8c:99:3b:a5:7e:56:a6:a2:e4:b1:72:c0:8d:
         f9:8f:9a:1d:cd:63:f3:ca:7a:56:0a:e3:6e:f6:97:cc:f2:89:
         d3:65:b0:47:24:43:81:f3:b9:5c:49:05:50:70:0e:a9:d9:f3:
         08:7f:73:75:4d:e7:77:69:41:c0:c2:0b:88:c4:ee:03:7b:14:
         22:aa:76:26:03:91:45:95:3a:80:65:23:6e:38:06:40:69:1a:
         89:78:7c:12:a3:0f:d4:8b:0f:9b:05:42:53:f2:ab:36:aa:b2:
         27:92:fc:b7
-----BEGIN CERTIFICATE-----
MIIDwzCCAqugAwIBAgIBAjANBgkqhkiG9w0BAQUFADCBjjELMAkGA1UEBhMCQ0gx
DzANBgNVBAgMBlp1cmljaDEPMA0GA1UEBwwGWnVyaWNoMQwwCgYDVQQKDANFVEgx
FjAUBgNVBAsMDUFwcGxpZWRTZWNMYWIxEDAOBgNVBAMMB0NvcmUgQ0ExJTAjBgkq
hkiG9w0BCQEWFmNvcmVfY2FfYWRtaW5AdGVzdC5jb20wHhcNMTcxMTExMTM1NzU2
WhcNMTgxMTExMTM1NzU2WjBbMQswCQYDVQQGEwJDSDEPMA0GA1UECAwGWnVyaWNo
MQwwCgYDVQQKDANFVEgxFjAUBgNVBAsMDUFwcGxpZWRTZWNMYWIxFTATBgNVBAMM
DEFyZCBLYXN0cmF0aTCCASIwDQYJKoZIhvcNAQEBBQADggEPADCCAQoCggEBAOdn
qYj+t7vR1bPOp7TleQuGUc8OQMWvOb/OojDBrRu6BlFy7L5JuGKwm+VZAm02X25V
sBK+R1NCstujwziaegFG0T0ocjDsOvsLNHiye/TjpM1Qeyb6jgyHIPqfZghTMUzX
0R2QanTVDGFfO1XkbFbDVeLw51AtykO90MeCfU0U9tcfgWl2jtnRoruyPciz2RUz
eqqw6F1Apxsc12I4Xcs95Wr4PjIUUFu13PZz7KiUbsAZ595c7p8hTqYoEn0O2XeD
Fb57/Gk/FckkvXByWxFv5OEX3XsfYjrPuRP4xFnbMs4BEusuxWu/nQnuqF+/zSJD
9mA8o5xanvVT2s8AKIECAwEAAaNeMFwwCQYDVR0TBAIwADAdBgNVHQ4EFgQUeXAU
08y6+pvXENYtOerkrM/QwqYwHwYDVR0jBBgwFoAUoYwPaVKHhGPPzaMNentFzZT2
kHYwDwYDVR0RBAgwBoEEdGVzdDANBgkqhkiG9w0BAQUFAAOCAQEAZQR9v5K8E0R9
2lBsLDwKdVU6a525xEqvRYMGTmOkvyUzorSX07MK+Nr+sFbMmgHhWBGSkguS1Hby
OcIv8FYmbrO0SL7ZudywhxB5YKXLMzwaImC2+oVuPI2ViljW/rNJB+VhdH+pNuyD
0lia8LEPcxIGhAPIzAmNoORBhqTX4N5E+0rrZxJoBW44bF2RKbS8s3Dm88uMmTul
flamouSxcsCN+Y+aHc1j88p6VgrjbvaXzPKJ02WwRyRDgfO5XEkFUHAOqdnzCH9z
dU3nd2lBwMILiMTuA3sUIqp2JgORRZU6gGUjbjgGQGkaiXh8EqMP1IsPmwVCU/Kr
NqqyJ5L8tw==
-----END CERTIFICATE-----
