Certificate:
    Data:
        Version: 3 (0x2)
        Serial Number: 3 (0x3)
    Signature Algorithm: sha1WithRSAEncryption
        Issuer: C=CH, ST=Zurich, L=Zurich, O=ETH, OU=AppliedSecLab, CN=Core CA/emailAddress=core_ca_admin@test.com
        Validity
            Not Before: Nov 11 14:19:01 2017 GMT
            Not After : Nov 11 14:19:01 2018 GMT
        Subject: C=CH, ST=Zurich, O=ETH, OU=AppliedSecLab, CN=Ard Kastrati/emailAddress=test@imovie.ch
        Subject Public Key Info:
            Public Key Algorithm: rsaEncryption
                Public-Key: (2048 bit)
                Modulus:
                    00:c2:8c:59:87:ce:3b:c6:e2:a5:20:74:42:e6:73:
                    04:b0:2e:f6:86:80:d3:e6:8c:ae:3a:f0:ab:08:92:
                    b1:20:c6:a8:c0:18:47:9c:ca:e2:58:ae:31:76:aa:
                    f5:04:24:4f:c2:46:43:0c:92:20:79:38:28:08:ad:
                    d2:26:18:02:e7:62:01:f6:11:63:7d:ed:61:f6:90:
                    6f:2c:65:fb:41:cf:5c:c0:02:ff:28:a8:b3:e1:37:
                    98:ae:ca:7c:5e:b8:62:07:da:03:fe:02:91:d0:3a:
                    14:14:30:24:03:47:24:ae:33:db:20:5a:8c:12:67:
                    07:ba:f8:9c:84:4d:a4:fc:69:39:1f:db:d0:ef:29:
                    d5:d3:f0:0b:dd:38:2a:d5:19:cd:d3:67:19:93:62:
                    d6:fd:a6:be:91:07:29:6b:45:c6:8c:c8:a6:09:37:
                    43:a9:78:45:5b:d0:3f:c5:5a:2e:45:b7:2d:27:ce:
                    0c:62:42:13:24:3f:f1:cf:4b:3c:9f:b4:10:d0:7b:
                    be:22:61:21:61:05:95:6b:94:05:d7:90:0c:d8:05:
                    35:f5:61:87:66:fe:53:06:a4:da:68:3b:02:0b:d7:
                    f6:93:96:3c:ed:f8:0f:3a:be:9f:11:1a:b5:2f:8b:
                    50:c4:90:f3:e0:82:5d:fb:10:d6:6d:ca:9e:69:df:
                    4a:ef
                Exponent: 65537 (0x10001)
        X509v3 extensions:
            X509v3 Basic Constraints: 
                CA:FALSE
            Netscape Cert Type: 
                SSL Client, S/MIME
            X509v3 Extended Key Usage: 
                E-mail Protection
            X509v3 Subject Key Identifier: 
                E2:21:5D:45:12:CF:7E:B5:C3:50:EC:F3:FE:05:50:1F:D2:3F:42:A4
            X509v3 Authority Key Identifier: 
                keyid:A1:8C:0F:69:52:87:84:63:CF:CD:A3:0D:7A:7B:45:CD:94:F6:90:76

            X509v3 Subject Alternative Name: 
                email:test@imovie.ch
    Signature Algorithm: sha1WithRSAEncryption
         ac:15:91:23:a3:25:c3:d3:e5:56:ba:42:5b:80:81:85:2c:73:
         b2:7b:10:00:be:85:4a:73:41:02:31:12:dc:fc:12:4c:36:e7:
         26:a2:f8:04:62:b6:ac:b5:be:82:c6:76:db:b8:ec:1d:ca:f5:
         66:c7:a3:22:0f:76:06:90:e6:65:24:9d:4f:55:95:07:ef:d0:
         06:b6:ef:ac:5f:77:31:f2:a8:1f:88:b5:77:82:86:ed:ef:ba:
         0e:10:84:ef:a5:4f:36:06:b0:03:a2:5d:53:8a:bb:3a:34:fc:
         71:93:54:7a:73:90:9c:b4:e9:cb:13:c5:7f:1e:a4:e6:73:14:
         3d:b6:c0:82:20:e2:db:52:fe:7a:22:4d:68:5c:a2:13:f9:8c:
         6e:e5:ee:4d:41:9d:8c:7d:e8:20:ed:4d:28:95:26:09:ed:79:
         df:b5:c1:5f:f7:84:af:f5:0a:5c:7e:e4:44:8e:87:07:48:f5:
         2c:0c:ba:0f:9e:2f:f5:4c:c6:05:f6:a9:a0:71:4c:7d:73:df:
         26:1b:40:93:71:cb:df:8c:5d:f2:fd:95:f5:0a:5a:f2:fa:07:
         e4:da:90:77:81:43:8e:34:24:1f:6f:ff:3b:f5:86:74:86:7e:
         36:26:e7:7b:93:71:5c:10:2a:25:e7:f5:0d:cf:f8:3b:00:44:
         70:fd:d7:8a
-----BEGIN CERTIFICATE-----
MIIEFjCCAv6gAwIBAgIBAzANBgkqhkiG9w0BAQUFADCBjjELMAkGA1UEBhMCQ0gx
DzANBgNVBAgMBlp1cmljaDEPMA0GA1UEBwwGWnVyaWNoMQwwCgYDVQQKDANFVEgx
FjAUBgNVBAsMDUFwcGxpZWRTZWNMYWIxEDAOBgNVBAMMB0NvcmUgQ0ExJTAjBgkq
hkiG9w0BCQEWFmNvcmVfY2FfYWRtaW5AdGVzdC5jb20wHhcNMTcxMTExMTQxOTAx
WhcNMTgxMTExMTQxOTAxWjB6MQswCQYDVQQGEwJDSDEPMA0GA1UECAwGWnVyaWNo
MQwwCgYDVQQKDANFVEgxFjAUBgNVBAsMDUFwcGxpZWRTZWNMYWIxFTATBgNVBAMM
DEFyZCBLYXN0cmF0aTEdMBsGCSqGSIb3DQEJARYOdGVzdEBpbW92aWUuY2gwggEi
MA0GCSqGSIb3DQEBAQUAA4IBDwAwggEKAoIBAQDCjFmHzjvG4qUgdELmcwSwLvaG
gNPmjK468KsIkrEgxqjAGEecyuJYrjF2qvUEJE/CRkMMkiB5OCgIrdImGALnYgH2
EWN97WH2kG8sZftBz1zAAv8oqLPhN5iuynxeuGIH2gP+ApHQOhQUMCQDRySuM9sg
WowSZwe6+JyETaT8aTkf29DvKdXT8AvdOCrVGc3TZxmTYtb9pr6RBylrRcaMyKYJ
N0OpeEVb0D/FWi5Fty0nzgxiQhMkP/HPSzyftBDQe74iYSFhBZVrlAXXkAzYBTX1
YYdm/lMGpNpoOwIL1/aTljzt+A86vp8RGrUvi1DEkPPggl37ENZtyp5p30rvAgMB
AAGjgZEwgY4wCQYDVR0TBAIwADARBglghkgBhvhCAQEEBAMCBaAwEwYDVR0lBAww
CgYIKwYBBQUHAwQwHQYDVR0OBBYEFOIhXUUSz361w1Ds8/4FUB/SP0KkMB8GA1Ud
IwQYMBaAFKGMD2lSh4Rjz82jDXp7Rc2U9pB2MBkGA1UdEQQSMBCBDnRlc3RAaW1v
dmllLmNoMA0GCSqGSIb3DQEBBQUAA4IBAQCsFZEjoyXD0+VWukJbgIGFLHOyexAA
voVKc0ECMRLc/BJMNucmovgEYrastb6CxnbbuOwdyvVmx6MiD3YGkOZlJJ1PVZUH
79AGtu+sX3cx8qgfiLV3gobt77oOEITvpU82BrADol1Tirs6NPxxk1R6c5CctOnL
E8V/HqTmcxQ9tsCCIOLbUv56Ik1oXKIT+Yxu5e5NQZ2Mfegg7U0olSYJ7XnftcFf
94Sv9QpcfuREjocHSPUsDLoPni/1TMYF9qmgcUx9c98mG0CTccvfjF3y/ZX1Clry
+gfk2pB3gUOONCQfb/879YZ0hn42Jud7k3FcECol5/UNz/g7AERw/deK
-----END CERTIFICATE-----
