Certificate:
    Data:
        Version: 3 (0x2)
        Serial Number: 4 (0x4)
    Signature Algorithm: sha1WithRSAEncryption
        Issuer: C=CH, ST=Zurich, L=Zurich, O=ETH, OU=AppliedSecLab, CN=Core CA/emailAddress=core_ca_admin@test.com
        Validity
            Not Before: Nov 11 14:37:54 2017 GMT
            Not After : Nov 11 14:37:54 2018 GMT
        Subject: C=CH, ST=Zurich, O=ETH, OU=AppliedSecLab, CN=Ard Kastrat/emailAddress=test2@imovie.ch
        Subject Public Key Info:
            Public Key Algorithm: rsaEncryption
                Public-Key: (2048 bit)
                Modulus:
                    00:df:23:33:7d:6b:35:55:fa:5d:69:f0:6e:84:08:
                    6d:d4:44:13:ee:d3:9d:ae:a3:39:26:f6:5d:dd:74:
                    ff:93:70:20:19:db:7c:64:e6:5a:d6:43:84:c4:4f:
                    26:3a:7e:29:c9:57:94:18:d0:80:94:3e:dc:56:4a:
                    4e:d1:4d:ce:78:ae:88:2d:2c:9d:02:8a:ce:a9:8b:
                    f5:a2:d2:24:6b:c5:27:fd:58:c6:8e:e9:3c:37:af:
                    98:62:44:c5:8c:a1:5f:de:0b:46:77:6e:3d:0a:b0:
                    03:03:a1:d5:c1:51:7b:ef:c3:15:7e:90:95:92:48:
                    1e:6c:98:d9:8a:71:29:5b:bd:92:3b:a9:bf:9d:b3:
                    0f:c0:14:8a:b4:d3:1b:94:d7:24:4e:cd:25:66:50:
                    08:55:1b:44:b5:9d:9c:77:1a:43:db:ea:0c:c3:c6:
                    88:56:43:38:54:05:10:af:ff:39:6b:c0:b4:fc:f8:
                    13:3b:3b:5b:84:22:79:86:51:f9:fa:b9:69:4e:db:
                    99:6e:93:28:3c:20:d2:d2:51:b4:d8:8f:47:9e:60:
                    70:48:c1:1b:5d:88:ed:ca:93:34:4c:52:5e:c4:6f:
                    ad:62:a6:94:74:20:8a:45:49:3f:7b:6f:ad:57:a2:
                    85:57:93:60:34:f2:77:86:02:78:56:45:5d:38:01:
                    ff:5d
                Exponent: 65537 (0x10001)
        X509v3 extensions:
            X509v3 Basic Constraints: 
                CA:FALSE
            Netscape Cert Type: 
                SSL Client, S/MIME
            X509v3 Extended Key Usage: 
                E-mail Protection
            X509v3 Subject Key Identifier: 
                4B:7C:72:90:F0:61:0A:E5:FC:BD:A0:CC:69:DC:F1:38:CD:3C:78:F3
            X509v3 Authority Key Identifier: 
                keyid:A1:8C:0F:69:52:87:84:63:CF:CD:A3:0D:7A:7B:45:CD:94:F6:90:76

            X509v3 Subject Alternative Name: 
                email:test2@imovie.ch
    Signature Algorithm: sha1WithRSAEncryption
         79:ae:b7:c6:71:4a:52:12:9f:8f:19:af:34:62:c1:53:d6:5d:
         de:92:fa:ab:3e:ee:d1:a0:c7:03:af:58:67:6e:9f:53:b7:5f:
         53:bc:b0:be:98:56:ac:63:9e:cd:6c:56:0c:8d:ac:3c:03:0a:
         bf:93:c1:68:e7:f6:e9:93:27:af:b1:a0:6d:82:cf:5c:7e:90:
         46:ad:3f:50:8f:35:d0:7f:27:79:fd:91:7e:f9:86:05:05:82:
         40:6d:7e:df:c4:dc:92:fc:76:ad:7d:07:2d:b1:31:cc:89:c0:
         97:78:10:84:42:46:21:64:9e:92:3a:a9:80:cf:9d:26:c0:dd:
         c9:14:e5:55:14:c1:e1:68:89:bf:52:43:2b:4b:31:cd:d8:36:
         38:b7:31:1a:3b:4f:d8:de:43:f6:78:2f:8f:2a:d4:78:c8:09:
         04:f2:bc:b7:ec:cd:f1:e3:67:30:76:71:2b:58:be:c2:d8:4e:
         15:c6:91:c0:47:3e:a5:68:a1:da:f9:9c:d4:56:aa:26:bf:c7:
         fd:a8:d5:b8:5d:44:f5:a2:e2:35:ce:1d:25:1a:aa:ca:c9:11:
         49:5f:e6:a6:a5:c7:41:a6:40:3c:f0:cb:8c:d8:ca:9c:f3:1c:
         6f:de:ee:6e:06:56:68:34:ae:64:87:d8:1a:5c:a2:f4:f1:6a:
         dd:b3:03:af
-----BEGIN CERTIFICATE-----
MIIEFzCCAv+gAwIBAgIBBDANBgkqhkiG9w0BAQUFADCBjjELMAkGA1UEBhMCQ0gx
DzANBgNVBAgMBlp1cmljaDEPMA0GA1UEBwwGWnVyaWNoMQwwCgYDVQQKDANFVEgx
FjAUBgNVBAsMDUFwcGxpZWRTZWNMYWIxEDAOBgNVBAMMB0NvcmUgQ0ExJTAjBgkq
hkiG9w0BCQEWFmNvcmVfY2FfYWRtaW5AdGVzdC5jb20wHhcNMTcxMTExMTQzNzU0
WhcNMTgxMTExMTQzNzU0WjB6MQswCQYDVQQGEwJDSDEPMA0GA1UECAwGWnVyaWNo
MQwwCgYDVQQKDANFVEgxFjAUBgNVBAsMDUFwcGxpZWRTZWNMYWIxFDASBgNVBAMM
C0FyZCBLYXN0cmF0MR4wHAYJKoZIhvcNAQkBFg90ZXN0MkBpbW92aWUuY2gwggEi
MA0GCSqGSIb3DQEBAQUAA4IBDwAwggEKAoIBAQDfIzN9azVV+l1p8G6ECG3URBPu
052uozkm9l3ddP+TcCAZ23xk5lrWQ4TETyY6finJV5QY0ICUPtxWSk7RTc54rogt
LJ0Cis6pi/Wi0iRrxSf9WMaO6Tw3r5hiRMWMoV/eC0Z3bj0KsAMDodXBUXvvwxV+
kJWSSB5smNmKcSlbvZI7qb+dsw/AFIq00xuU1yROzSVmUAhVG0S1nZx3GkPb6gzD
xohWQzhUBRCv/zlrwLT8+BM7O1uEInmGUfn6uWlO25lukyg8INLSUbTYj0eeYHBI
wRtdiO3KkzRMUl7Eb61ippR0IIpFST97b61XooVXk2A08neGAnhWRV04Af9dAgMB
AAGjgZIwgY8wCQYDVR0TBAIwADARBglghkgBhvhCAQEEBAMCBaAwEwYDVR0lBAww
CgYIKwYBBQUHAwQwHQYDVR0OBBYEFEt8cpDwYQrl/L2gzGnc8TjNPHjzMB8GA1Ud
IwQYMBaAFKGMD2lSh4Rjz82jDXp7Rc2U9pB2MBoGA1UdEQQTMBGBD3Rlc3QyQGlt
b3ZpZS5jaDANBgkqhkiG9w0BAQUFAAOCAQEAea63xnFKUhKfjxmvNGLBU9Zd3pL6
qz7u0aDHA69YZ26fU7dfU7ywvphWrGOezWxWDI2sPAMKv5PBaOf26ZMnr7GgbYLP
XH6QRq0/UI810H8nef2RfvmGBQWCQG1+38Tckvx2rX0HLbExzInAl3gQhEJGIWSe
kjqpgM+dJsDdyRTlVRTB4WiJv1JDK0sxzdg2OLcxGjtP2N5D9ngvjyrUeMgJBPK8
t+zN8eNnMHZxK1i+wthOFcaRwEc+pWih2vmc1FaqJr/H/ajVuF1E9aLiNc4dJRqq
yskRSV/mpqXHQaZAPPDLjNjKnPMcb97ubgZWaDSuZIfYGlyi9PFq3bMDrw==
-----END CERTIFICATE-----
